; ModuleID = '60/807.c'
source_filename = "60/807.c"
target datalayout = "e-m:e-p270:32:32-p271:32:32-p272:64:64-i64:64-f80:128-n8:16:32:64-S128"
target triple = "x86_64-pc-linux-gnu"

@.str = private unnamed_addr constant [3 x i8] c"%d\00", align 1
@.str.1 = private unnamed_addr constant [6 x i8] c"empty\00", align 1
@.str.2 = private unnamed_addr constant [7 x i8] c"%d %d\0A\00", align 1

; Function Attrs: noinline nounwind uwtable
define dso_local i32 @main() #0 {
  %1 = alloca i32, align 4
  %2 = alloca i32, align 4
  %3 = alloca i32, align 4
  %4 = alloca i32, align 4
  %5 = alloca [100 x [2 x i32]], align 16
  store i32 0, i32* %1, align 4
  %6 = call i32 (i8*, ...) @__isoc99_scanf(i8* getelementptr inbounds ([3 x i8], [3 x i8]* @.str, i64 0, i64 0), i32* %2)
  store i32 0, i32* %4, align 4
  store i32 2, i32* %3, align 4
  br label %7

7:                                                ; preds = %37, %0
  %8 = load i32, i32* %3, align 4
  %9 = load i32, i32* %2, align 4
  %10 = sub nsw i32 %9, 2
  %11 = icmp sle i32 %8, %10
  br i1 %11, label %12, label %40

12:                                               ; preds = %7
  %13 = load i32, i32* %3, align 4
  %14 = call i32 @isSUSHU(i32 %13)
  %15 = icmp ne i32 %14, 0
  br i1 %15, label %16, label %36

16:                                               ; preds = %12
  %17 = load i32, i32* %3, align 4
  %18 = add nsw i32 %17, 2
  %19 = call i32 @isSUSHU(i32 %18)
  %20 = icmp ne i32 %19, 0
  br i1 %20, label %21, label %35

21:                                               ; preds = %16
  %22 = load i32, i32* %3, align 4
  %23 = load i32, i32* %4, align 4
  %24 = sext i32 %23 to i64
  %25 = getelementptr inbounds [100 x [2 x i32]], [100 x [2 x i32]]* %5, i64 0, i64 %24
  %26 = getelementptr inbounds [2 x i32], [2 x i32]* %25, i64 0, i64 1
  store i32 %22, i32* %26, align 4
  %27 = load i32, i32* %3, align 4
  %28 = add nsw i32 %27, 2
  %29 = load i32, i32* %4, align 4
  %30 = sext i32 %29 to i64
  %31 = getelementptr inbounds [100 x [2 x i32]], [100 x [2 x i32]]* %5, i64 0, i64 %30
  %32 = getelementptr inbounds [2 x i32], [2 x i32]* %31, i64 0, i64 2
  store i32 %28, i32* %32, align 8
  %33 = load i32, i32* %4, align 4
  %34 = add nsw i32 %33, 1
  store i32 %34, i32* %4, align 4
  br label %35

35:                                               ; preds = %21, %16
  br label %36

36:                                               ; preds = %35, %12
  br label %37

37:                                               ; preds = %36
  %38 = load i32, i32* %3, align 4
  %39 = add nsw i32 %38, 1
  store i32 %39, i32* %3, align 4
  br label %7

40:                                               ; preds = %7
  %41 = load i32, i32* %4, align 4
  %42 = icmp eq i32 %41, 0
  br i1 %42, label %43, label %45

43:                                               ; preds = %40
  %44 = call i32 (i8*, ...) @printf(i8* getelementptr inbounds ([6 x i8], [6 x i8]* @.str.1, i64 0, i64 0))
  br label %66

45:                                               ; preds = %40
  store i32 0, i32* %3, align 4
  br label %46

46:                                               ; preds = %62, %45
  %47 = load i32, i32* %3, align 4
  %48 = load i32, i32* %4, align 4
  %49 = icmp slt i32 %47, %48
  br i1 %49, label %50, label %65

50:                                               ; preds = %46
  %51 = load i32, i32* %3, align 4
  %52 = sext i32 %51 to i64
  %53 = getelementptr inbounds [100 x [2 x i32]], [100 x [2 x i32]]* %5, i64 0, i64 %52
  %54 = getelementptr inbounds [2 x i32], [2 x i32]* %53, i64 0, i64 1
  %55 = load i32, i32* %54, align 4
  %56 = load i32, i32* %3, align 4
  %57 = sext i32 %56 to i64
  %58 = getelementptr inbounds [100 x [2 x i32]], [100 x [2 x i32]]* %5, i64 0, i64 %57
  %59 = getelementptr inbounds [2 x i32], [2 x i32]* %58, i64 0, i64 2
  %60 = load i32, i32* %59, align 8
  %61 = call i32 (i8*, ...) @printf(i8* getelementptr inbounds ([7 x i8], [7 x i8]* @.str.2, i64 0, i64 0), i32 %55, i32 %60)
  br label %62

62:                                               ; preds = %50
  %63 = load i32, i32* %3, align 4
  %64 = add nsw i32 %63, 1
  store i32 %64, i32* %3, align 4
  br label %46

65:                                               ; preds = %46
  br label %66

66:                                               ; preds = %65, %43
  ret i32 0
}

declare dso_local i32 @__isoc99_scanf(i8*, ...) #1

; Function Attrs: noinline nounwind uwtable
define dso_local i32 @isSUSHU(i32 %0) #0 {
  %2 = alloca i32, align 4
  %3 = alloca i32, align 4
  %4 = alloca i32, align 4
  store i32 %0, i32* %3, align 4
  %5 = load i32, i32* %3, align 4
  %6 = sub nsw i32 %5, 1
  store i32 %6, i32* %4, align 4
  br label %7

7:                                                ; preds = %17, %1
  %8 = load i32, i32* %4, align 4
  %9 = icmp sge i32 %8, 1
  br i1 %9, label %10, label %20

10:                                               ; preds = %7
  %11 = load i32, i32* %3, align 4
  %12 = load i32, i32* %4, align 4
  %13 = srem i32 %11, %12
  %14 = icmp eq i32 %13, 0
  br i1 %14, label %15, label %16

15:                                               ; preds = %10
  br label %20

16:                                               ; preds = %10
  br label %17

17:                                               ; preds = %16
  %18 = load i32, i32* %4, align 4
  %19 = add nsw i32 %18, -1
  store i32 %19, i32* %4, align 4
  br label %7

20:                                               ; preds = %15, %7
  %21 = load i32, i32* %4, align 4
  %22 = icmp eq i32 %21, 1
  br i1 %22, label %23, label %24

23:                                               ; preds = %20
  store i32 1, i32* %2, align 4
  br label %25

24:                                               ; preds = %20
  store i32 0, i32* %2, align 4
  br label %25

25:                                               ; preds = %24, %23
  %26 = load i32, i32* %2, align 4
  ret i32 %26
}

declare dso_local i32 @printf(i8*, ...) #1


!llvm.module.flags = !{!0}
!llvm.ident = !{!1}

!0 = !{i32 1, !"wchar_size", i32 4}
!1 = !{!"clang version 10.0.0-4ubuntu1 "}
